Certificate:
    Data:
        Version: 1 (0x0)
        Serial Number: 2 (0x2)
    Signature Algorithm: md5WithRSAEncryption
        Issuer: C=IN, ST=TN, L=CH, O=dtls-example/emailAddress=hi2arun@gmail.com, CN=dtls-server
        Validity
            Not Before: Sep 21 07:04:05 2017 GMT
            Not After : Sep 21 07:04:05 2018 GMT
        Subject: C=IN, ST=TN, O=dtls-example, CN=dtlsclient/emailAddress=hi2arun@gmail.com
        Subject Public Key Info:
            Public Key Algorithm: rsaEncryption
                Public-Key: (512 bit)
                Modulus:
                    00:bf:0f:00:2d:4f:60:32:14:ee:42:f7:67:73:0c:
                    71:f8:ac:34:a9:84:7d:01:6f:27:29:e6:dd:2b:7d:
                    0f:4a:2d:19:65:23:3f:5a:99:d7:4c:df:f0:d2:43:
                    6e:9a:ac:ac:09:b4:4c:7d:a2:61:05:09:9d:24:4b:
                    9c:c0:e6:a7:b7
                Exponent: 65537 (0x10001)
    Signature Algorithm: md5WithRSAEncryption
         aa:3b:b1:58:1a:22:2f:62:20:38:33:c6:35:15:e0:2b:0b:49:
         9f:f6:71:c8:a9:b8:56:d4:42:6c:45:fa:f8:cd:de:2d:36:67:
         ed:8c:09:27:d2:05:ea:11:69:37:6f:b9:e6:84:c1:12:a4:1a:
         38:c6:a2:f0:67:7e:23:73:fe:37
-----BEGIN CERTIFICATE-----
MIIByDCCAXICAQIwDQYJKoZIhvcNAQEEBQAwdjELMAkGA1UEBhMCSU4xCzAJBgNV
BAgTAlROMQswCQYDVQQHEwJDSDEVMBMGA1UEChMMZHRscy1leGFtcGxlMSAwHgYJ
KoZIhvcNAQkBFhFoaTJhcnVuQGdtYWlsLmNvbTEUMBIGA1UEAxMLZHRscy1zZXJ2
ZXIwHhcNMTcwOTIxMDcwNDA1WhcNMTgwOTIxMDcwNDA1WjBoMQswCQYDVQQGEwJJ
TjELMAkGA1UECBMCVE4xFTATBgNVBAoTDGR0bHMtZXhhbXBsZTETMBEGA1UEAxMK
ZHRsc2NsaWVudDEgMB4GCSqGSIb3DQEJARYRaGkyYXJ1bkBnbWFpbC5jb20wXDAN
BgkqhkiG9w0BAQEFAANLADBIAkEAvw8ALU9gMhTuQvdncwxx+Kw0qYR9AW8nKebd
K30PSi0ZZSM/WpnXTN/w0kNumqysCbRMfaJhBQmdJEucwOantwIDAQABMA0GCSqG
SIb3DQEBBAUAA0EAqjuxWBoiL2IgODPGNRXgKwtJn/ZxyKm4VtRCbEX6+M3eLTZn
7YwJJ9IF6hFpN2+55oTBEqQaOMai8Gd+I3P+Nw==
-----END CERTIFICATE-----
